target datalayout = "e-m:e-p270:32:32-p271:32:32-p272:64:64-i64:64-i128:128-f80:128-n8:16:32:64-S128"
target triple = "x86_64-pc-linux-gnu"

%struct.FindData = type <{ [2048 x i32], i64, i32, i8, i8, [2 x i8], %class.RarTime, %class.RarTime, %class.RarTime, i32, i8, [3 x i8] }>
%class.RarTime = type { i64 }

; Function Attrs: mustprogress nounwind uwtable
define linkonce_odr void @_ZN7RarTime5ResetEv(ptr noundef nonnull align 8 dereferenceable(8) %0) #4 comdat align 2 {
  %2 = alloca ptr, align 8
  store ptr %0, ptr %2, align 8
  %3 = load ptr, ptr %2, align 8
  %4 = getelementptr inbounds %class.RarTime, ptr %3, i32 0, i32 0
  store i64 0, ptr %4, align 8
  ret void
}

; Function Attrs: mustprogress uwtable
define linkonce_odr void @_ZN7RarTimeC2Ev(ptr noundef nonnull align 8 dereferenceable(8) %0) unnamed_addr #0 comdat align 2 {
  %2 = alloca ptr, align 8
  store ptr %0, ptr %2, align 8
  %3 = load ptr, ptr %2, align 8
  call void @_ZN7RarTime5ResetEv(ptr noundef nonnull align 8 dereferenceable(8) %3)
  ret void
}

; Function Attrs: mustprogress uwtable
define noundef zeroext i1 @_Z7DelFilePKw(ptr noundef %0) #0 {
  %2 = alloca ptr, align 8
  %3 = alloca [2048 x i8], align 16
  %4 = alloca i8, align 1
  store ptr %0, ptr %2, align 8
  %5 = load ptr, ptr %2, align 8
  %6 = getelementptr inbounds [2048 x i8], ptr %3, i64 0, i64 0
  %7 = call noundef zeroext i1 @_Z10WideToCharPKwPcm(ptr noundef %5, ptr noundef %6, i64 noundef 2048)
  %8 = getelementptr inbounds [2048 x i8], ptr %3, i64 0, i64 0
  %9 = call i32 @remove(ptr noundef %8) #9
  %10 = icmp eq i32 %9, 0
  %11 = zext i1 %10 to i8
  store i8 %11, ptr %4, align 1
  %12 = load i8, ptr %4, align 1
  %13 = trunc i8 %12 to i1
  ret i1 %13
}

; Function Attrs: mustprogress uwtable
define linkonce_odr void @_ZN8FindDataC2Ev(ptr noundef nonnull align 8 dereferenceable(8237) %0) unnamed_addr #0 comdat align 2 {
  %2 = alloca ptr, align 8
  store ptr %0, ptr %2, align 8
  %3 = load ptr, ptr %2, align 8
  %4 = getelementptr inbounds %struct.FindData, ptr %3, i32 0, i32 6
  call void @_ZN7RarTimeC2Ev(ptr noundef nonnull align 8 dereferenceable(8) %4)
  %5 = getelementptr inbounds %struct.FindData, ptr %3, i32 0, i32 7
  call void @_ZN7RarTimeC2Ev(ptr noundef nonnull align 8 dereferenceable(8) %5)
  %6 = getelementptr inbounds %struct.FindData, ptr %3, i32 0, i32 8
  call void @_ZN7RarTimeC2Ev(ptr noundef nonnull align 8 dereferenceable(8) %6)
  ret void
}

; Function Attrs: mustprogress uwtable
define noundef zeroext i1 @_Z11LinksToDirsPKwS0_RNSt7__cxx1112basic_stringIwSt11char_traitsIwESaIwEEE(ptr noundef %0, ptr noundef %1, ptr noundef nonnull align 8 dereferenceable(32) %2) #0 {
  %4 = alloca i1, align 1
  %5 = alloca ptr, align 8
  %6 = alloca ptr, align 8
  %7 = alloca ptr, align 8
  %8 = alloca [2048 x i32], align 16
  %9 = alloca i64, align 8
  %10 = alloca i32, align 4
  %11 = alloca ptr, align 8
  %12 = alloca ptr, align 8
  %13 = alloca %struct.FindData, align 8
  store ptr %0, ptr %5, align 8
  store ptr %1, ptr %6, align 8
  store ptr %2, ptr %7, align 8
  %14 = load ptr, ptr %5, align 8
  %15 = call i64 @wcslen(ptr noundef %14) #11
  %16 = icmp uge i64 %15, 2048
  br i1 %16, label %17, label %18

17:                                               ; preds = %3
  store i1 false, ptr %4, align 1
  br label %128

18:                                               ; preds = %3
  %19 = getelementptr inbounds [2048 x i32], ptr %8, i64 0, i64 0
  %20 = load ptr, ptr %5, align 8
  call void @_Z8wcsncpyzPwPKwm(ptr noundef %19, ptr noundef %20, i64 noundef 2048)
  %21 = load ptr, ptr %6, align 8
  %22 = call i64 @wcslen(ptr noundef %21) #11
  store i64 %22, ptr %9, align 8
  %23 = load i64, ptr %9, align 8
  %24 = icmp ugt i64 %23, 0
  br i1 %24, label %25, label %32

25:                                               ; preds = %18
  %26 = getelementptr inbounds [2048 x i32], ptr %8, i64 0, i64 0
  %27 = load ptr, ptr %6, align 8
  %28 = load i64, ptr %9, align 8
  %29 = call i32 @wcsncmp(ptr noundef %26, ptr noundef %27, i64 noundef %28) #11
  %30 = icmp ne i32 %29, 0
  br i1 %30, label %31, label %32

31:                                               ; preds = %25
  store i64 0, ptr %9, align 8
  br label %32

32:                                               ; preds = %31, %25, %18
  store i32 0, ptr %10, align 4
  br label %33

33:                                               ; preds = %73, %32
  %34 = load i32, ptr %10, align 4
  %35 = zext i32 %34 to i64
  %36 = getelementptr inbounds [2048 x i32], ptr %8, i64 0, i64 %35
  %37 = load i32, ptr %36, align 4
  %38 = icmp ne i32 %37, 0
  br i1 %38, label %39, label %56

39:                                               ; preds = %33
  %40 = load i32, ptr %10, align 4
  %41 = zext i32 %40 to i64
  %42 = load ptr, ptr %7, align 8
  %43 = call noundef i64 @_ZNKSt7__cxx1112basic_stringIwSt11char_traitsIwESaIwEE4sizeEv(ptr noundef nonnull align 8 dereferenceable(32) %42) #9
  %44 = icmp ult i64 %41, %43
  br i1 %44, label %45, label %56

45:                                               ; preds = %39
  %46 = load i32, ptr %10, align 4
  %47 = zext i32 %46 to i64
  %48 = getelementptr inbounds [2048 x i32], ptr %8, i64 0, i64 %47
  %49 = load i32, ptr %48, align 4
  %50 = load ptr, ptr %7, align 8
  %51 = load i32, ptr %10, align 4
  %52 = zext i32 %51 to i64
  %53 = call noundef nonnull align 4 dereferenceable(4) ptr @_ZNSt7__cxx1112basic_stringIwSt11char_traitsIwESaIwEEixEm(ptr noundef nonnull align 8 dereferenceable(32) %50, i64 noundef %52)
  %54 = load i32, ptr %53, align 4
  %55 = icmp eq i32 %49, %54
  br label %56

56:                                               ; preds = %45, %39, %33
  %57 = phi i1 [ false, %39 ], [ false, %33 ], [ %55, %45 ]
  br i1 %57, label %58, label %76

58:                                               ; preds = %56
  %59 = load i32, ptr %10, align 4
  %60 = zext i32 %59 to i64
  %61 = getelementptr inbounds [2048 x i32], ptr %8, i64 0, i64 %60
  %62 = load i32, ptr %61, align 4
  %63 = call noundef zeroext i1 @_Z9IsPathDivi(i32 noundef %62)
  br i1 %63, label %64, label %72

64:                                               ; preds = %58
  %65 = load i32, ptr %10, align 4
  %66 = zext i32 %65 to i64
  %67 = load i64, ptr %9, align 8
  %68 = icmp ugt i64 %66, %67
  br i1 %68, label %69, label %72

69:                                               ; preds = %64
  %70 = load i32, ptr %10, align 4
  %71 = zext i32 %70 to i64
  store i64 %71, ptr %9, align 8
  br label %72

72:                                               ; preds = %69, %64, %58
  br label %73

73:                                               ; preds = %72
  %74 = load i32, ptr %10, align 4
  %75 = add i32 %74, 1
  store i32 %75, ptr %10, align 4
  br label %33, !llvm.loop !8

76:                                               ; preds = %56
  %77 = getelementptr inbounds [2048 x i32], ptr %8, i64 0, i64 0
  store ptr %77, ptr %11, align 8
  %78 = load i64, ptr %9, align 8
  %79 = icmp ugt i64 %78, 0
  br i1 %79, label %80, label %92

80:                                               ; preds = %76
  %81 = load i64, ptr %9, align 8
  %82 = load ptr, ptr %11, align 8
  %83 = getelementptr inbounds i32, ptr %82, i64 %81
  store ptr %83, ptr %11, align 8
  br label %84

84:                                               ; preds = %88, %80
  %85 = load ptr, ptr %11, align 8
  %86 = load i32, ptr %85, align 4
  %87 = call noundef zeroext i1 @_Z9IsPathDivi(i32 noundef %86)
  br i1 %87, label %88, label %91

88:                                               ; preds = %84
  %89 = load ptr, ptr %11, align 8
  %90 = getelementptr inbounds i32, ptr %89, i32 1
  store ptr %90, ptr %11, align 8
  br label %84, !llvm.loop !9

91:                                               ; preds = %84
  br label %92

92:                                               ; preds = %91, %76
  %93 = getelementptr inbounds [2048 x i32], ptr %8, i64 0, i64 0
  %94 = getelementptr inbounds [2048 x i32], ptr %8, i64 0, i64 0
  %95 = call i64 @wcslen(ptr noundef %94) #11
  %96 = getelementptr inbounds i32, ptr %93, i64 %95
  %97 = getelementptr inbounds i32, ptr %96, i64 -1
  store ptr %97, ptr %12, align 8
  br label %98

98:                                               ; preds = %121, %92
  %99 = load ptr, ptr %12, align 8
  %100 = load ptr, ptr %11, align 8
  %101 = icmp ugt ptr %99, %100
  br i1 %101, label %102, label %124

102:                                              ; preds = %98
  %103 = load ptr, ptr %12, align 8
  %104 = load i32, ptr %103, align 4
  %105 = call noundef zeroext i1 @_Z9IsPathDivi(i32 noundef %104)
  br i1 %105, label %106, label %120

106:                                              ; preds = %102
  %107 = load ptr, ptr %12, align 8
  store i32 0, ptr %107, align 4
  call void @_ZN8FindDataC2Ev(ptr noundef nonnull align 8 dereferenceable(8237) %13)
  %108 = getelementptr inbounds [2048 x i32], ptr %8, i64 0, i64 0
  %109 = call noundef zeroext i1 @_ZN8FindFile8FastFindEPKwP8FindDatab(ptr noundef %108, ptr noundef %13, i1 noundef zeroext true)
  br i1 %109, label %110, label %119

110:                                              ; preds = %106
  %111 = getelementptr inbounds %struct.FindData, ptr %13, i32 0, i32 4
  %112 = load i8, ptr %111, align 1
  %113 = trunc i8 %112 to i1
  br i1 %113, label %114, label %119

114:                                              ; preds = %110
  %115 = getelementptr inbounds [2048 x i32], ptr %8, i64 0, i64 0
  %116 = call noundef zeroext i1 @_Z7DelFilePKw(ptr noundef %115)
  br i1 %116, label %118, label %117

117:                                              ; preds = %114
  store i1 false, ptr %4, align 1
  br label %128

118:                                              ; preds = %114
  br label %119

119:                                              ; preds = %118, %110, %106
  br label %120

120:                                              ; preds = %119, %102
  br label %121

121:                                              ; preds = %120
  %122 = load ptr, ptr %12, align 8
  %123 = getelementptr inbounds i32, ptr %122, i32 -1
  store ptr %123, ptr %12, align 8
  br label %98, !llvm.loop !10

124:                                              ; preds = %98
  %125 = load ptr, ptr %5, align 8
  %126 = load ptr, ptr %7, align 8
  %127 = call noundef nonnull align 8 dereferenceable(32) ptr @_ZNSt7__cxx1112basic_stringIwSt11char_traitsIwESaIwEEaSEPKw(ptr noundef nonnull align 8 dereferenceable(32) %126, ptr noundef %125)
  store i1 true, ptr %4, align 1
  br label %128

128:                                              ; preds = %124, %117, %17
  %129 = load i1, ptr %4, align 1
  ret i1 %129
}