; Function Attrs: mustprogress uwtable
define noundef zeroext i1 @_Z11LinksToDirsPKwS0_RNSt7__cxx1112basic_stringIwSt11char_traitsIwESaIwEEE(ptr noundef %0, ptr noundef readonly %1, ptr noundef nonnull align 8 dereferenceable(32) %2) local_unnamed_addr #0 {
  %4 = alloca [2048 x i8], align 16
  %5 = alloca [2048 x i32], align 16
  %6 = alloca %struct.FindData, align 8
  %7 = tail call i64 @wcslen(ptr noundef %0) #16
  %8 = icmp ugt i64 %7, 2047
  br i1 %8, label %.loopexit, label %9

9:                                                ; preds = %3
  call void @_Z8wcsncpyzPwPKwm(ptr noundef nonnull %5, ptr noundef %0, i64 noundef 2048)
  %10 = call i64 @wcslen(ptr noundef %1) #16
  %.not = icmp eq i64 %10, 0
  br i1 %.not, label %13, label %11

11:                                               ; preds = %9
  %12 = call i32 @wcsncmp(ptr noundef nonnull %5, ptr noundef %1, i64 noundef %10) #16
  %.not37 = icmp eq i32 %12, 0
  %spec.store.select = select i1 %.not37, i64 %10, i64 0
  br label %13

13:                                               ; preds = %11, %9
  %.031 = phi i64 [ %spec.store.select, %11 ], [ 0, %9 ]
  %14 = load i32, ptr %5, align 16
  %.not3841 = icmp eq i32 %14, 0
  br i1 %.not3841, label %.critedge, label %.lr.ph

.lr.ph:                                           ; preds = %13, %24
  %15 = phi ptr [ %30, %24 ], [ %5, %13 ]
  %16 = phi i64 [ %29, %24 ], [ 0, %13 ]
  %.03043 = phi i32 [ %28, %24 ], [ 0, %13 ]
  %.13242 = phi i64 [ %.2, %24 ], [ %.031, %13 ]
  %17 = call noundef i64 @_ZNKSt7__cxx1112basic_stringIwSt11char_traitsIwESaIwEE4sizeEv(ptr noundef nonnull align 8 dereferenceable(32) %2) #14
  %18 = icmp ugt i64 %17, %16
  br i1 %18, label %19, label %.critedge

19:                                               ; preds = %.lr.ph
  %20 = load i32, ptr %15, align 4
  %21 = call noundef nonnull align 4 dereferenceable(4) ptr @_ZNSt7__cxx1112basic_stringIwSt11char_traitsIwESaIwEEixEm(ptr noundef nonnull align 8 dereferenceable(32) %2, i64 noundef %16)
  %22 = load i32, ptr %21, align 4
  %23 = icmp eq i32 %20, %22
  br i1 %23, label %24, label %.critedge

24:                                               ; preds = %19
  %25 = load i32, ptr %15, align 4
  %26 = call noundef zeroext i1 @_Z9IsPathDivi(i32 noundef %25)
  %27 = call i64 @llvm.umax.i64(i64 %.13242, i64 %16)
  %.2 = select i1 %26, i64 %27, i64 %.13242
  %28 = add i32 %.03043, 1
  %29 = zext i32 %28 to i64
  %30 = getelementptr inbounds nuw [2048 x i32], ptr %5, i64 0, i64 %29
  %31 = load i32, ptr %30, align 4
  %.not38 = icmp eq i32 %31, 0
  br i1 %.not38, label %.critedge, label %.lr.ph, !llvm.loop !9

.critedge:                                        ; preds = %19, %24, %.lr.ph, %13
  %.132.lcssa = phi i64 [ %.031, %13 ], [ %.13242, %.lr.ph ], [ %.2, %24 ], [ %.13242, %19 ]
  %.not39 = icmp eq i64 %.132.lcssa, 0
  br i1 %.not39, label %.loopexit40, label %32

32:                                               ; preds = %.critedge
  %33 = getelementptr inbounds i32, ptr %5, i64 %.132.lcssa
  br label %34

34:                                               ; preds = %34, %32
  %.1 = phi ptr [ %33, %32 ], [ %37, %34 ]
  %35 = load i32, ptr %.1, align 4
  %36 = call noundef zeroext i1 @_Z9IsPathDivi(i32 noundef %35)
  %37 = getelementptr inbounds nuw i8, ptr %.1, i64 4
  br i1 %36, label %34, label %.loopexit40, !llvm.loop !10

.loopexit40:                                      ; preds = %34, %.critedge
  %.029 = phi ptr [ %5, %.critedge ], [ %.1, %34 ]
  %38 = call i64 @wcslen(ptr noundef nonnull %5) #16
  %39 = getelementptr inbounds i32, ptr %5, i64 %38
  %.048 = getelementptr inbounds i8, ptr %39, i64 -4
  %40 = icmp ugt ptr %.048, %.029
  br i1 %40, label %.lr.ph50, label %._crit_edge

.lr.ph50:                                         ; preds = %.loopexit40
  %41 = getelementptr inbounds nuw i8, ptr %6, i64 8208
  %42 = getelementptr inbounds nuw i8, ptr %6, i64 8205
  br label %43

43:                                               ; preds = %.lr.ph50, %55
  %.049 = phi ptr [ %.048, %.lr.ph50 ], [ %.0, %55 ]
  %44 = load i32, ptr %.049, align 4
  %45 = call noundef zeroext i1 @_Z9IsPathDivi(i32 noundef %44)
  br i1 %45, label %46, label %55

46:                                               ; preds = %43
  store i32 0, ptr %.049, align 4
  call void @llvm.memset.p0.i64(ptr noundef nonnull align 8 dereferenceable(24) %41, i8 0, i64 24, i1 false)
  %47 = call noundef zeroext i1 @_ZN8FindFile8FastFindEPKwP8FindDatab(ptr noundef nonnull %5, ptr noundef nonnull %6, i1 noundef zeroext true)
  br i1 %47, label %48, label %55

48:                                               ; preds = %46
  %49 = load i8, ptr %42, align 1
  %50 = trunc i8 %49 to i1
  br i1 %50, label %51, label %55

51:                                               ; preds = %48
  call void @llvm.lifetime.start.p0(i64 2048, ptr nonnull %4)
  %52 = call noundef zeroext i1 @_Z10WideToCharPKwPcm(ptr noundef nonnull %5, ptr noundef nonnull %4, i64 noundef 2048)
  %53 = call i32 @remove(ptr noundef nonnull %4) #14
  %54 = icmp eq i32 %53, 0
  call void @llvm.lifetime.end.p0(i64 2048, ptr nonnull %4)
  br i1 %54, label %55, label %.loopexit

55:                                               ; preds = %43, %51, %48, %46
  %.0 = getelementptr inbounds i8, ptr %.049, i64 -4
  %56 = icmp ugt ptr %.0, %.029
  br i1 %56, label %43, label %._crit_edge, !llvm.loop !11

._crit_edge:                                      ; preds = %55, %.loopexit40
  %57 = call noundef nonnull align 8 dereferenceable(32) ptr @_ZNSt7__cxx1112basic_stringIwSt11char_traitsIwESaIwEEaSEPKw(ptr noundef nonnull align 8 dereferenceable(32) %2, ptr noundef %0)
  br label %.loopexit

.loopexit:                                        ; preds = %51, %3, %._crit_edge
  %.033 = phi i1 [ true, %._crit_edge ], [ false, %3 ], [ false, %51 ]
  ret i1 %.033
}